Certificate:
    Data:
        Version: 1 (0x0)
        Serial Number: 2 (0x2)
        Signature Algorithm: sha1WithRSAEncryption
        Issuer: CN=DefaultCA
        Validity
            Not Before: Dec 31 23:59:59 1969 GMT
            Not After : Dec 31 23:59:59 2039 GMT
        Subject: CN=DefaultClient
        Subject Public Key Info:
            Public Key Algorithm: rsaEncryption
            RSA Public Key: (2048 bit)
                Modulus (2048 bit):
                    00:e1:75:79:3e:33:58:a1:67:9d:31:79:51:16:8a:
                    46:f3:8f:15:40:74:7f:09:16:22:4e:f6:c7:87:00:
                    45:8a:c6:6e:61:5b:d1:b9:3b:12:6b:ad:c2:0a:3e:
                    de:b4:9d:03:dd:2b:97:9a:8d:8d:14:60:cb:fb:11:
                    a4:01:88:2f:70:f8:77:f3:96:01:92:23:83:92:7e:
                    41:8d:b2:2f:9c:d2:da:7a:00:2a:b3:7b:47:c4:7e:
                    0b:ce:34:0c:b2:89:53:55:b6:d6:e7:90:78:4b:29:
                    7f:50:8e:85:3a:d4:0f:d2:7d:cc:38:09:6a:5f:d9:
                    f7:b3:78:88:46:91:db:2e:4e:a2:d1:a1:9c:91:d3:
                    49:3e:38:a9:57:9a:c2:a0:50:87:b2:58:c2:a9:d9:
                    1a:f4:5f:34:e7:33:47:6e:68:a8:36:9c:4a:e8:0a:
                    67:fe:72:97:b3:fb:28:e6:c4:fe:8b:c0:79:a9:e9:
                    d0:e5:3e:aa:1f:89:58:87:17:3b:b2:d8:8b:94:43:
                    5c:1d:29:7d:36:69:d2:6e:17:fd:8c:50:d4:5c:ee:
                    51:46:60:87:b7:fb:69:58:d1:d6:19:51:f6:f6:7a:
                    0f:8e:a8:16:c0:c8:57:3a:5a:5e:1f:97:64:98:91:
                    fe:47:62:e7:6d:42:39:ad:77:8d:80:f7:0f:65:3a:
                    7c:5f
                Exponent: 65537 (0x10001)
    Signature Algorithm: sha1WithRSAEncryption
        1a:67:a2:fa:5d:1b:a9:87:11:9a:64:15:6e:ae:32:bd:f9:af:
        f1:10:ab:c3:a3:36:f3:d2:ba:39:6c:7f:e1:52:17:bb:f8:ab:
        1e:f1:37:5d:65:8c:22:99:40:99:4b:c5:cf:65:1a:54:3a:d6:
        99:28:1d:62:9f:36:25:90:56:9e:a3:64:35:31:7b:db:92:22:
        43:3a:27:e9:38:4c:c3:6d:66:e4:9b:19:1b:6a:ee:43:67:23:
        9c:a7:03:2d:53:b9:15:db:33:c7:b2:c8:32:82:58:07:dd:9c:
        19:58:2e:d4:40:fd:7f:6e:c1:11:46:37:3c:0d:39:2e:e2:75:
        bb:b6:39:95:32:32:f8:5f:25:05:9e:e1:55:8a:3e:4d:12:5a:
        68:18:f8:a3:83:9a:b5:fd:45:95:31:e0:cf:e4:ac:04:af:e6:
        5d:b8:06:3d:0b:4a:80:a0:eb:07:46:88:4e:bb:d0:2d:3b:67:
        b2:b0:e3:4a:e3:34:6c:bd:98:47:74:d5:68:23:70:b2:d5:52:
        39:95:3b:73:1f:0b:b1:cf:52:c4:32:19:dc:69:eb:81:fa:ff:
        e4:5b:e6:f1:3b:84:7f:77:84:13:1a:51:75:67:67:fc:65:96:
        70:30:fc:3b:4c:f0:35:d7:c4:b8:fe:31:48:6d:b5:5f:73:3e:
        25:08:0a:8b
-----BEGIN CERTIFICATE-----
MIICoDCCAYgCAQIwDQYJKoZIhvcNAQEFBQAwFDESMBAGA1UEAxMJRGVmYXVsdENB
MB4XDTY5MTIzMTIzNTk1OVoXDTM5MTIzMTIzNTk1OVowGDEWMBQGA1UEAxMNRGVm
YXVsdENsaWVudDCCASIwDQYJKoZIhvcNAQEBBQADggEPADCCAQoCggEBAOF1eT4z
WKFnnTF5URaKRvOPFUB0fwkWIk72x4cARYrGbmFb0bk7Emutwgo+3rSdA90rl5qN
jRRgy/sRpAGIL3D4d/OWAZIjg5J+QY2yL5zS2noAKrN7R8R+C840DLKJU1W21ueQ
eEspf1COhTrUD9J9zDgJal/Z97N4iEaR2y5OotGhnJHTST44qVeawqBQh7JYwqnZ
GvRfNOczR25oqDacSugKZ/5yl7P7KObE/ovAeanp0OU+qh+JWIcXO7LYi5RDXB0p
fTZp0m4X/YxQ1FzuUUZgh7f7aVjR1hlR9vZ6D46oFsDIVzpaXh+XZJiR/kdi521C
Oa13jYD3D2U6fF8CAwEAATANBgkqhkiG9w0BAQUFAAOCAQEAGmei+l0bqYcRmmQV
bq4yvfmv8RCrw6M289K6OWx/4VIXu/irHvE3XWWMIplAmUvFz2UaVDrWmSgdYp82
JZBWnqNkNTF725IiQzon6ThMw21m5JsZG2ruQ2cjnKcDLVO5Fdszx7LIMoJYB92c
GVgu1ED9f27BEUY3PA05LuJ1u7Y5lTIy+F8lBZ7hVYo+TRJaaBj4o4Oatf1FlTHg
z+SsBK/mXbgGPQtKgKDrB0aITrvQLTtnsrDjSuM0bL2YR3TVaCNwstVSOZU7cx8L
sc9SxDIZ3Gnrgfr/5Fvm8TuEf3eEExpRdWdn/GWWcDD8O0zwNdfEuP4xSG21X3M+
JQgKiw==
-----END CERTIFICATE-----
